; Function Attrs: nofree norecurse nosync nounwind memory(readwrite, inaccessiblemem: none) uwtable
define internal noundef i32 @filter_slice_luma16(ptr noundef readonly captures(none) %0, ptr noundef readonly captures(none) %1, i32 noundef %2, i32 noundef %3) #6 {
  %5 = getelementptr inbounds nuw i8, ptr %0, i64 72
  %6 = load ptr, ptr %5, align 8, !tbaa !4
  %7 = getelementptr inbounds nuw i8, ptr %1, i64 108
  %8 = load i32, ptr %7, align 4, !tbaa !53
  %9 = mul nsw i32 %8, %2
  %10 = sdiv i32 %9, %3
  %11 = add nsw i32 %2, 1
  %12 = mul nsw i32 %8, %11
  %13 = sdiv i32 %12, %3
  %14 = getelementptr inbounds nuw i8, ptr %6, i64 64
  %15 = load i32, ptr %14, align 8, !tbaa !70
  %.not = icmp eq i32 %15, 0
  %16 = icmp slt i32 %10, %13
  %17 = getelementptr inbounds nuw i8, ptr %6, i64 52
  %18 = getelementptr inbounds nuw i8, ptr %1, i64 64
  %19 = getelementptr inbounds nuw i8, ptr %6, i64 44
  %20 = getelementptr inbounds nuw i8, ptr %6, i64 12
  %21 = getelementptr inbounds nuw i8, ptr %6, i64 48
  br i1 %16, label %.split.us, label %.split43.us

.split.us:                                        ; preds = %4
  %22 = getelementptr inbounds nuw i8, ptr %6, i64 36
  %23 = getelementptr inbounds nuw i8, ptr %1, i64 104
  %24 = load i32, ptr %23, align 8, !tbaa !74
  %25 = load i32, ptr %22, align 4, !tbaa !69
  %26 = mul nsw i32 %25, %24
  %27 = icmp sgt i32 %26, 0
  br i1 %27, label %.split.us.split.us, label %.split43.us

.split.us.split.us:                               ; preds = %.split.us
  %28 = load i32, ptr %19, align 4, !tbaa !72
  %29 = load i32, ptr %20, align 4, !tbaa !40
  %30 = load i32, ptr %21, align 8, !tbaa !73
  br i1 %.not, label %.preheader.us.us.us.preheader, label %.split.us.split.us.split

.preheader.us.us.us.preheader:                    ; preds = %.split.us.split.us
  %31 = sext i32 %10 to i64
  %32 = load ptr, ptr %1, align 8, !tbaa !54
  %33 = load i32, ptr %18, align 4, !tbaa !75
  %34 = sext i32 %33 to i64
  %wide.trip.count66 = sext i32 %13 to i64
  br label %.lr.ph.us.us.us.us

.lr.ph.us.us.us.us:                               ; preds = %._crit_edge.us.us.us.us, %.preheader.us.us.us.preheader
  %indvars.iv63 = phi i64 [ %indvars.iv.next64, %._crit_edge.us.us.us.us ], [ %31, %.preheader.us.us.us.preheader ]
  %35 = mul nsw i64 %indvars.iv63, %34
  %36 = getelementptr inbounds i8, ptr %32, i64 %35
  br label %37

37:                                               ; preds = %37, %.lr.ph.us.us.us.us
  %.035.us.us.us.us = phi ptr [ %36, %.lr.ph.us.us.us.us ], [ %45, %37 ]
  %.03134.us.us.us.us = phi i32 [ 0, %.lr.ph.us.us.us.us ], [ %46, %37 ]
  %38 = load i16, ptr %.035.us.us.us.us, align 2, !tbaa !89
  %39 = zext i16 %38 to i32
  %40 = sub i32 %39, %28
  %41 = mul i32 %40, %29
  %42 = add i32 %41, %30
  %43 = lshr i32 %42, 16
  %44 = trunc nuw i32 %43 to i16
  store i16 %44, ptr %.035.us.us.us.us, align 2, !tbaa !89
  %45 = getelementptr inbounds nuw i8, ptr %.035.us.us.us.us, i64 2
  %46 = add nuw nsw i32 %.03134.us.us.us.us, 1
  %exitcond62.not = icmp eq i32 %46, %26
  br i1 %exitcond62.not, label %._crit_edge.us.us.us.us, label %37, !llvm.loop !91

._crit_edge.us.us.us.us:                          ; preds = %37
  %indvars.iv.next64 = add nsw i64 %indvars.iv63, 1
  %exitcond67.not = icmp eq i64 %indvars.iv.next64, %wide.trip.count66
  br i1 %exitcond67.not, label %.split43.us, label %.lr.ph.us.us.us.us, !llvm.loop !92

.split.us.split.us.split:                         ; preds = %.split.us.split.us
  %47 = load i8, ptr %17, align 4, !tbaa !51
  %.not33.us.us = icmp ne i8 %47, 0
  %48 = sext i32 %10 to i64
  %wide.trip.count = sext i32 %13 to i64
  br label %.preheader.us.us

.preheader.us.us:                                 ; preds = %.split.us.split.us.split, %._crit_edge38.split.us.us.us
  %indvars.iv59 = phi i64 [ 0, %.split.us.split.us.split ], [ %indvars.iv.next60, %._crit_edge38.split.us.us.us ]
  %49 = getelementptr inbounds nuw [8 x ptr], ptr %1, i64 0, i64 %indvars.iv59
  %50 = load ptr, ptr %49, align 8, !tbaa !54
  %51 = getelementptr inbounds nuw [8 x i32], ptr %18, i64 0, i64 %indvars.iv59
  %52 = load i32, ptr %51, align 4, !tbaa !75
  %53 = sext i32 %52 to i64
  br label %.lr.ph.us.us.us

.lr.ph.us.us.us:                                  ; preds = %._crit_edge.us.us.us, %.preheader.us.us
  %indvars.iv = phi i64 [ %indvars.iv.next, %._crit_edge.us.us.us ], [ %48, %.preheader.us.us ]
  %54 = mul nsw i64 %indvars.iv, %53
  %55 = getelementptr inbounds i8, ptr %50, i64 %54
  br label %56

56:                                               ; preds = %56, %.lr.ph.us.us.us
  %.035.us.us.us = phi ptr [ %55, %.lr.ph.us.us.us ], [ %64, %56 ]
  %.03134.us.us.us = phi i32 [ 0, %.lr.ph.us.us.us ], [ %65, %56 ]
  %57 = load i16, ptr %.035.us.us.us, align 2, !tbaa !89
  %58 = zext i16 %57 to i32
  %59 = sub i32 %58, %28
  %60 = mul i32 %59, %29
  %61 = add i32 %60, %30
  %62 = lshr i32 %61, 16
  %63 = trunc nuw i32 %62 to i16
  store i16 %63, ptr %.035.us.us.us, align 2, !tbaa !89
  %64 = getelementptr inbounds nuw i8, ptr %.035.us.us.us, i64 2
  %65 = add nuw nsw i32 %.03134.us.us.us, 1
  %exitcond.not = icmp eq i32 %65, %26
  br i1 %exitcond.not, label %._crit_edge.us.us.us, label %56, !llvm.loop !91

._crit_edge.us.us.us:                             ; preds = %56
  %indvars.iv.next = add nsw i64 %indvars.iv, 1
  %exitcond58.not = icmp eq i64 %indvars.iv.next, %wide.trip.count
  br i1 %exitcond58.not, label %._crit_edge38.split.us.us.us, label %.lr.ph.us.us.us, !llvm.loop !92

._crit_edge38.split.us.us.us:                     ; preds = %._crit_edge.us.us.us
  %indvars.iv.next60 = add nuw nsw i64 %indvars.iv59, 1
  %66 = icmp samesign ult i64 %indvars.iv59, 2
  %67 = select i1 %.not33.us.us, i1 %66, i1 false
  br i1 %67, label %.preheader.us.us, label %.split43.us, !llvm.loop !93

.split43.us:                                      ; preds = %._crit_edge38.split.us.us.us, %._crit_edge.us.us.us.us, %4, %.split.us
  ret i32 0
}